target datalayout = "e-m:e-p270:32:32-p271:32:32-p272:64:64-i64:64-i128:128-f80:128-n8:16:32:64-S128"
target triple = "x86_64-unknown-linux-gnu"

%"class.icu_75::UnicodeString" = type { %"class.icu_75::Replaceable", %"union.icu_75::UnicodeString::StackBufferOrFields" }
%"class.icu_75::Replaceable" = type { %"class.icu_75::UObject" }
%"class.icu_75::UObject" = type { ptr }
%"union.icu_75::UnicodeString::StackBufferOrFields" = type { %struct.anon.0, [32 x i8] }
%struct.anon.0 = type { i16, i32, i32, ptr }
%"class.icu_75::UXMLParser" = type { %"class.icu_75::UObject", %"class.icu_75::RegexMatcher", %"class.icu_75::RegexMatcher", %"class.icu_75::RegexMatcher", %"class.icu_75::RegexMatcher", %"class.icu_75::RegexMatcher", %"class.icu_75::RegexMatcher", %"class.icu_75::RegexMatcher", %"class.icu_75::RegexMatcher", %"class.icu_75::RegexMatcher", %"class.icu_75::RegexMatcher", %"class.icu_75::RegexMatcher", %"class.icu_75::RegexMatcher", %"class.icu_75::RegexMatcher", %"class.icu_75::Hashtable", %"class.icu_75::UStack", i32, %"class.icu_75::UnicodeString" }
%"class.icu_75::RegexMatcher" = type { %"class.icu_75::UObject", ptr, ptr, ptr, ptr, ptr, i64, i32, i64, i64, i64, i64, i64, i64, i64, i64, i8, i8, i8, i64, i64, i64, i64, i8, i8, ptr, ptr, ptr, [8 x i64], i32, i32, i32, i32, ptr, ptr, ptr, ptr, i8, i8, i32, ptr, ptr }
%"class.icu_75::Hashtable" = type { ptr, %struct.UHashtable }
%struct.UHashtable = type { ptr, ptr, ptr, ptr, ptr, ptr, i32, i32, i32, i32, float, float, i8, i8 }
%"class.icu_75::UStack" = type { %"class.icu_75::UVector" }
%"class.icu_75::UVector" = type { %"class.icu_75::UObject", i32, i32, ptr, ptr, ptr }
%struct.UHashElement = type { i32, %union.UElement, %union.UElement }
%union.UElement = type { ptr }

; Function Attrs: mustprogress uwtable
define linkonce_odr noundef i32 @_ZN6icu_759Hashtable4putiERKNS_13UnicodeStringEiR10UErrorCode(ptr noundef nonnull align 8 dereferenceable(88) %this, ptr noundef nonnull align 8 dereferenceable(64) %key, i32 noundef %value, ptr noundef nonnull align 4 dereferenceable(4) %status) #1 comdat align 2 personality ptr @__gxx_personality_v0 {
entry:
  %this.addr = alloca ptr, align 8
  %key.addr = alloca ptr, align 8
  %value.addr = alloca i32, align 4
  %status.addr = alloca ptr, align 8
  %cleanup.cond = alloca i1, align 1
  %exn.slot = alloca ptr, align 8
  %ehselector.slot = alloca i32, align 4
  store ptr %this, ptr %this.addr, align 8
  store ptr %key, ptr %key.addr, align 8
  store i32 %value, ptr %value.addr, align 4
  store ptr %status, ptr %status.addr, align 8
  %this1 = load ptr, ptr %this.addr, align 8
  %hash = getelementptr inbounds %"class.icu_75::Hashtable", ptr %this1, i32 0, i32 0
  %0 = load ptr, ptr %hash, align 8
  %call = call noundef ptr @_ZN6icu_757UMemorynwEm(i64 noundef 64) #6
  %new.isnull = icmp eq ptr %call, null
  store i1 false, ptr %cleanup.cond, align 1
  br i1 %new.isnull, label %new.cont, label %new.notnull

new.notnull:                                      ; preds = %entry
  store i1 true, ptr %cleanup.cond, align 1
  %1 = load ptr, ptr %key.addr, align 8
  invoke void @_ZN6icu_7513UnicodeStringC1ERKS0_(ptr noundef nonnull align 8 dereferenceable(64) %call, ptr noundef nonnull align 8 dereferenceable(64) %1)
          to label %invoke.cont unwind label %lpad

invoke.cont:                                      ; preds = %new.notnull
  br label %new.cont

new.cont:                                         ; preds = %invoke.cont, %entry
  %2 = phi ptr [ %call, %invoke.cont ], [ null, %entry ]
  %3 = load i32, ptr %value.addr, align 4
  %4 = load ptr, ptr %status.addr, align 8
  %call2 = call i32 @uhash_puti_75(ptr noundef %0, ptr noundef %2, i32 noundef %3, ptr noundef %4)
  ret i32 %call2

lpad:                                             ; preds = %new.notnull
  %5 = landingpad { ptr, i32 }
          cleanup
  %6 = extractvalue { ptr, i32 } %5, 0
  store ptr %6, ptr %exn.slot, align 8
  %7 = extractvalue { ptr, i32 } %5, 1
  store i32 %7, ptr %ehselector.slot, align 4
  %cleanup.is_active = load i1, ptr %cleanup.cond, align 1
  br i1 %cleanup.is_active, label %cleanup.action, label %cleanup.done

cleanup.action:                                   ; preds = %lpad
  call void @_ZN6icu_757UMemorydlEPv(ptr noundef %call) #6
  br label %cleanup.done

cleanup.done:                                     ; preds = %cleanup.action, %lpad
  br label %eh.resume

eh.resume:                                        ; preds = %cleanup.done
  %exn = load ptr, ptr %exn.slot, align 8
  %sel = load i32, ptr %ehselector.slot, align 4
  %lpad.val = insertvalue { ptr, i32 } poison, ptr %exn, 0
  %lpad.val3 = insertvalue { ptr, i32 } %lpad.val, i32 %sel, 1
  resume { ptr, i32 } %lpad.val3
}

; Function Attrs: mustprogress uwtable
define linkonce_odr noundef ptr @_ZNK6icu_759Hashtable4findERKNS_13UnicodeStringE(ptr noundef nonnull align 8 dereferenceable(88) %this, ptr noundef nonnull align 8 dereferenceable(64) %key) #1 comdat align 2 {
entry:
  %this.addr = alloca ptr, align 8
  %key.addr = alloca ptr, align 8
  store ptr %this, ptr %this.addr, align 8
  store ptr %key, ptr %key.addr, align 8
  %this1 = load ptr, ptr %this.addr, align 8
  %hash = getelementptr inbounds %"class.icu_75::Hashtable", ptr %this1, i32 0, i32 0
  %0 = load ptr, ptr %hash, align 8
  %1 = load ptr, ptr %key.addr, align 8
  %call = call ptr @uhash_find_75(ptr noundef %0, ptr noundef %1)
  ret ptr %call
}

; Function Attrs: mustprogress uwtable
define noundef ptr @_ZN6icu_7510UXMLParser6internERKNS_13UnicodeStringER10UErrorCode(ptr noundef nonnull align 8 dereferenceable(4576) %this, ptr noundef nonnull align 8 dereferenceable(64) %s, ptr noundef nonnull align 4 dereferenceable(4) %errorCode) #1 align 2 {
entry:
  %retval = alloca ptr, align 8
  %this.addr = alloca ptr, align 8
  %s.addr = alloca ptr, align 8
  %errorCode.addr = alloca ptr, align 8
  %he = alloca ptr, align 8
  store ptr %this, ptr %this.addr, align 8
  store ptr %s, ptr %s.addr, align 8
  store ptr %errorCode, ptr %errorCode.addr, align 8
  %this1 = load ptr, ptr %this.addr, align 8
  %fNames = getelementptr inbounds %"class.icu_75::UXMLParser", ptr %this1, i32 0, i32 14
  %0 = load ptr, ptr %s.addr, align 8
  %call = call noundef ptr @_ZNK6icu_759Hashtable4findERKNS_13UnicodeStringE(ptr noundef nonnull align 8 dereferenceable(88) %fNames, ptr noundef nonnull align 8 dereferenceable(64) %0)
  store ptr %call, ptr %he, align 8
  %1 = load ptr, ptr %he, align 8
  %cmp = icmp ne ptr %1, null
  br i1 %cmp, label %if.then, label %if.else

if.then:                                          ; preds = %entry
  %2 = load ptr, ptr %he, align 8
  %key = getelementptr inbounds %struct.UHashElement, ptr %2, i32 0, i32 2
  %3 = load ptr, ptr %key, align 8
  store ptr %3, ptr %retval, align 8
  br label %return

if.else:                                          ; preds = %entry
  %fNames2 = getelementptr inbounds %"class.icu_75::UXMLParser", ptr %this1, i32 0, i32 14
  %4 = load ptr, ptr %s.addr, align 8
  %5 = load ptr, ptr %errorCode.addr, align 8
  %call3 = call noundef i32 @_ZN6icu_759Hashtable4putiERKNS_13UnicodeStringEiR10UErrorCode(ptr noundef nonnull align 8 dereferenceable(88) %fNames2, ptr noundef nonnull align 8 dereferenceable(64) %4, i32 noundef 1, ptr noundef nonnull align 4 dereferenceable(4) %5)
  %fNames4 = getelementptr inbounds %"class.icu_75::UXMLParser", ptr %this1, i32 0, i32 14
  %6 = load ptr, ptr %s.addr, align 8
  %call5 = call noundef ptr @_ZNK6icu_759Hashtable4findERKNS_13UnicodeStringE(ptr noundef nonnull align 8 dereferenceable(88) %fNames4, ptr noundef nonnull align 8 dereferenceable(64) %6)
  store ptr %call5, ptr %he, align 8
  %7 = load ptr, ptr %he, align 8
  %key6 = getelementptr inbounds %struct.UHashElement, ptr %7, i32 0, i32 2
  %8 = load ptr, ptr %key6, align 8
  store ptr %8, ptr %retval, align 8
  br label %return

return:                                           ; preds = %if.else, %if.then
  %9 = load ptr, ptr %retval, align 8
  ret ptr %9
}