; Function Attrs: mustprogress uwtable
define noundef ptr @_ZN6icu_7510UXMLParser6internERKNS_13UnicodeStringER10UErrorCode(ptr nocapture noundef nonnull readonly align 8 dereferenceable(4576) %this, ptr noundef nonnull align 8 dereferenceable(64) %s, ptr noundef nonnull align 4 dereferenceable(4) %errorCode) local_unnamed_addr #1 align 2 personality ptr @__gxx_personality_v0 {
entry:
  %fNames = getelementptr inbounds i8, ptr %this, i64 4376
  %0 = load ptr, ptr %fNames, align 8
  %call.i = tail call noundef ptr @uhash_find_75(ptr noundef %0, ptr noundef nonnull %s)
  %cmp.not = icmp eq ptr %call.i, null
  br i1 %cmp.not, label %if.else, label %return

if.else:                                          ; preds = %entry
  %1 = load ptr, ptr %fNames, align 8
  %call.i5 = tail call noundef ptr @_ZN6icu_757UMemorynwEm(i64 noundef 64) #11
  %new.isnull.i = icmp eq ptr %call.i5, null
  br i1 %new.isnull.i, label %_ZN6icu_759Hashtable4putiERKNS_13UnicodeStringEiR10UErrorCode.exit, label %new.notnull.i

new.notnull.i:                                    ; preds = %if.else
  invoke void @_ZN6icu_7513UnicodeStringC1ERKS0_(ptr noundef nonnull align 8 dereferenceable(64) %call.i5, ptr noundef nonnull align 8 dereferenceable(64) %s)
          to label %_ZN6icu_759Hashtable4putiERKNS_13UnicodeStringEiR10UErrorCode.exit unwind label %lpad.i

lpad.i:                                           ; preds = %new.notnull.i
  %2 = landingpad { ptr, i32 }
          cleanup
  tail call void @_ZN6icu_757UMemorydlEPv(ptr noundef nonnull %call.i5) #11
  resume { ptr, i32 } %2

_ZN6icu_759Hashtable4putiERKNS_13UnicodeStringEiR10UErrorCode.exit: ; preds = %if.else, %new.notnull.i
  %call2.i = tail call noundef i32 @uhash_puti_75(ptr noundef %1, ptr noundef %call.i5, i32 noundef 1, ptr noundef nonnull %errorCode)
  %3 = load ptr, ptr %fNames, align 8
  %call.i6 = tail call noundef ptr @uhash_find_75(ptr noundef %3, ptr noundef nonnull %s)
  br label %return

return:                                           ; preds = %entry, %_ZN6icu_759Hashtable4putiERKNS_13UnicodeStringEiR10UErrorCode.exit
  %call.pn = phi ptr [ %call.i6, %_ZN6icu_759Hashtable4putiERKNS_13UnicodeStringEiR10UErrorCode.exit ], [ %call.i, %entry ]
  %retval.0.in = getelementptr inbounds i8, ptr %call.pn, i64 16
  %retval.0 = load ptr, ptr %retval.0.in, align 8
  ret ptr %retval.0
}